target datalayout = "e-m:e-p270:32:32-p271:32:32-p272:64:64-i64:64-i128:128-f80:128-n8:16:32:64-S128"
target triple = "x86_64-pc-linux-gnu"

%struct.SDL_RenderViewState = type { i32, i32, %struct.SDL_Rect, %struct.SDL_Rect, %struct.SDL_Rect, %struct.SDL_Rect, i8, %struct.SDL_FPoint, i32, i32, i32, %struct.SDL_FRect, %struct.SDL_FRect, %struct.SDL_FPoint, %struct.SDL_FPoint, %struct.SDL_FPoint }
%struct.SDL_FRect = type { float, float, float, float }
%struct.SDL_FPoint = type { float, float }
%struct.SDL_FColor = type { float, float, float, float }
%struct.SDL_Rect = type { i32, i32, i32, i32 }
%struct.SDL_Texture = type { i32, i32, i32, i32, i32, float, float, i32, i32, i32, %struct.SDL_FColor, %struct.SDL_RenderViewState, ptr, ptr, ptr, ptr, i32, %struct.SDL_Rect, ptr, i32, i32, ptr, ptr, ptr }

@.str.2 = private unnamed_addr constant [26 x i8] c"Parameter '%s' is invalid\00", align 1
@.str.52 = private unnamed_addr constant [8 x i8] c"texture\00", align 1

; Function Attrs: nounwind uwtable
define hidden zeroext i1 @SDL_GetTextureAlphaModFloat_REAL(ptr noundef %0, ptr noundef %1) #0 {
  %3 = alloca i1, align 1
  %4 = alloca ptr, align 8
  %5 = alloca ptr, align 8
  store ptr %0, ptr %4, align 8
  store ptr %1, ptr %5, align 8
  %6 = load ptr, ptr %5, align 8
  %7 = icmp ne ptr %6, null
  br i1 %7, label %8, label %10

8:                                                ; preds = %2
  %9 = load ptr, ptr %5, align 8
  store float 1.000000e+00, ptr %9, align 4
  br label %10

10:                                               ; preds = %8, %2
  %11 = load ptr, ptr %4, align 8
  %12 = call zeroext i1 @SDL_ObjectValid(ptr noundef %11, i32 noundef 3)
  br i1 %12, label %15, label %13

13:                                               ; preds = %10
  %14 = call zeroext i1 (ptr, ...) @SDL_SetError_REAL(ptr noundef @.str.2, ptr noundef @.str.52)
  store i1 false, ptr %3, align 1
  br label %25

15:                                               ; preds = %10
  %16 = load ptr, ptr %5, align 8
  %17 = icmp ne ptr %16, null
  br i1 %17, label %18, label %24

18:                                               ; preds = %15
  %19 = load ptr, ptr %4, align 8
  %20 = getelementptr inbounds nuw %struct.SDL_Texture, ptr %19, i32 0, i32 10
  %21 = getelementptr inbounds nuw %struct.SDL_FColor, ptr %20, i32 0, i32 3
  %22 = load float, ptr %21, align 4
  %23 = load ptr, ptr %5, align 8
  store float %22, ptr %23, align 4
  br label %24

24:                                               ; preds = %18, %15
  store i1 true, ptr %3, align 1
  br label %25

25:                                               ; preds = %24, %13
  %26 = load i1, ptr %3, align 1
  ret i1 %26
}

; Function Attrs: nounwind uwtable
define hidden zeroext i1 @SDL_GetTextureAlphaMod_REAL(ptr noundef %0, ptr noundef %1) #0 {
  %3 = alloca i1, align 1
  %4 = alloca ptr, align 8
  %5 = alloca ptr, align 8
  %6 = alloca float, align 4
  %7 = alloca i32, align 4
  store ptr %0, ptr %4, align 8
  store ptr %1, ptr %5, align 8
  call void @llvm.lifetime.start.p0(i64 4, ptr %6) #10
  store float 1.000000e+00, ptr %6, align 4
  %8 = load ptr, ptr %4, align 8
  %9 = call zeroext i1 @SDL_GetTextureAlphaModFloat_REAL(ptr noundef %8, ptr noundef %6)
  br i1 %9, label %16, label %10

10:                                               ; preds = %2
  %11 = load ptr, ptr %5, align 8
  %12 = icmp ne ptr %11, null
  br i1 %12, label %13, label %15

13:                                               ; preds = %10
  %14 = load ptr, ptr %5, align 8
  store i8 -1, ptr %14, align 1
  br label %15

15:                                               ; preds = %13, %10
  store i1 false, ptr %3, align 1
  store i32 1, ptr %7, align 4
  br label %38

16:                                               ; preds = %2
  %17 = load ptr, ptr %5, align 8
  %18 = icmp ne ptr %17, null
  br i1 %18, label %19, label %37

19:                                               ; preds = %16
  %20 = load float, ptr %6, align 4
  %21 = fcmp olt float %20, 0.000000e+00
  br i1 %21, label %22, label %23

22:                                               ; preds = %19
  br label %31

23:                                               ; preds = %19
  %24 = load float, ptr %6, align 4
  %25 = fcmp ogt float %24, 1.000000e+00
  br i1 %25, label %26, label %27

26:                                               ; preds = %23
  br label %29

27:                                               ; preds = %23
  %28 = load float, ptr %6, align 4
  br label %29

29:                                               ; preds = %27, %26
  %30 = phi float [ 1.000000e+00, %26 ], [ %28, %27 ]
  br label %31

31:                                               ; preds = %29, %22
  %32 = phi float [ 0.000000e+00, %22 ], [ %30, %29 ]
  %33 = fmul float %32, 2.550000e+02
  %34 = call float @SDL_roundf_REAL(float noundef %33)
  %35 = fptoui float %34 to i8
  %36 = load ptr, ptr %5, align 8
  store i8 %35, ptr %36, align 1
  br label %37

37:                                               ; preds = %31, %16
  store i1 true, ptr %3, align 1
  store i32 1, ptr %7, align 4
  br label %38

38:                                               ; preds = %37, %15
  call void @llvm.lifetime.end.p0(i64 4, ptr %6) #10
  %39 = load i1, ptr %3, align 1
  ret i1 %39
}