; Function Attrs: nounwind uwtable
define hidden noundef zeroext i1 @SDL_GetTextureAlphaMod_REAL(ptr noundef %0, ptr noundef writeonly captures(address_is_null) %1) local_unnamed_addr #0 {
  %3 = tail call zeroext i1 @SDL_ObjectValid(ptr noundef %0, i32 noundef 3) #15
  br i1 %3, label %6, label %4

4:                                                ; preds = %2
  %5 = tail call zeroext i1 (ptr, ...) @SDL_SetError_REAL(ptr noundef nonnull @.str.2, ptr noundef nonnull @.str.52) #15
  %.not = icmp eq ptr %1, null
  br i1 %.not, label %19, label %.sink.split

6:                                                ; preds = %2
  %7 = getelementptr inbounds nuw i8, ptr %0, i64 52
  %8 = load float, ptr %7, align 4
  %.not8 = icmp eq ptr %1, null
  br i1 %.not8, label %19, label %9

9:                                                ; preds = %6
  %10 = fcmp olt float %8, 0.000000e+00
  br i1 %10, label %15, label %11

11:                                               ; preds = %9
  %12 = fcmp ogt float %8, 1.000000e+00
  %13 = select i1 %12, float 1.000000e+00, float %8
  %14 = fmul float %13, 2.550000e+02
  br label %15

15:                                               ; preds = %9, %11
  %16 = phi float [ %14, %11 ], [ 0.000000e+00, %9 ]
  %17 = tail call float @SDL_roundf_REAL(float noundef %16) #15
  %18 = fptoui float %17 to i8
  br label %.sink.split

.sink.split:                                      ; preds = %4, %15
  %.sink = phi i8 [ %18, %15 ], [ -1, %4 ]
  store i8 %.sink, ptr %1, align 1
  br label %19

19:                                               ; preds = %.sink.split, %6, %4
  ret i1 %3
}